; Function Attrs: mustprogress uwtable
define hidden void @_ZNK5zxing24GreyscaleLuminanceSource22rotateCounterClockwiseERNS_12ErrorHandlerE(ptr dead_on_unwind noalias nocapture writable writeonly sret(%"class.zxing::Ref") align 8 %0, ptr nocapture noundef nonnull readonly align 8 dereferenceable(64) %1, ptr noundef nonnull align 8 dereferenceable(48) %2) unnamed_addr #0 align 2 personality ptr @__gxx_personality_v0 {
  %4 = alloca %"class.zxing::ArrayRef", align 8
  %5 = tail call noalias noundef nonnull dereferenceable(64) ptr @_Znwm(i64 noundef 64) #11
  %6 = getelementptr inbounds i8, ptr %4, i64 8
  store i32 0, ptr %6, align 8
  store ptr getelementptr inbounds inrange(-16, 16) (i8, ptr @_ZTVN5zxing8ArrayRefIcEE, i64 16), ptr %4, align 8
  %7 = getelementptr inbounds i8, ptr %4, i64 16
  %8 = getelementptr inbounds i8, ptr %1, i64 40
  %9 = load ptr, ptr %8, align 8
  %.not.i.i = icmp eq ptr %9, null
  br i1 %.not.i.i, label %14, label %10

10:                                               ; preds = %3
  %11 = getelementptr inbounds i8, ptr %9, i64 8
  %12 = load i32, ptr %11, align 8
  %13 = add i32 %12, 1
  store i32 %13, ptr %11, align 8
  br label %14

14:                                               ; preds = %10, %3
  store ptr %9, ptr %7, align 8
  %15 = getelementptr inbounds i8, ptr %1, i64 48
  %16 = load i32, ptr %15, align 8
  %17 = getelementptr inbounds i8, ptr %1, i64 52
  %18 = load i32, ptr %17, align 4
  %19 = getelementptr inbounds i8, ptr %1, i64 60
  %20 = load i32, ptr %19, align 4
  %21 = getelementptr inbounds i8, ptr %1, i64 56
  %22 = load i32, ptr %21, align 8
  %23 = getelementptr inbounds i8, ptr %1, i64 16
  %24 = load i32, ptr %23, align 8
  %25 = getelementptr inbounds i8, ptr %1, i64 12
  %26 = load i32, ptr %25, align 4
  invoke void @_ZN5zxing31GreyscaleRotatedLuminanceSourceC1ENS_8ArrayRefIcEEiiiiiiRNS_12ErrorHandlerE(ptr noundef nonnull align 8 dereferenceable(60) %5, ptr noundef nonnull %4, i32 noundef %16, i32 noundef %18, i32 noundef %20, i32 noundef %22, i32 noundef %24, i32 noundef %26, ptr noundef nonnull align 8 dereferenceable(48) %2)
          to label %27 unwind label %46

27:                                               ; preds = %14
  %28 = getelementptr inbounds i8, ptr %5, i64 8
  %29 = load i32, ptr %28, align 8
  %30 = add i32 %29, 1
  store i32 %30, ptr %28, align 8
  store ptr getelementptr inbounds inrange(-16, 16) (i8, ptr @_ZTVN5zxing8ArrayRefIcEE, i64 16), ptr %4, align 8
  %31 = load ptr, ptr %7, align 8
  %.not.i = icmp eq ptr %31, null
  br i1 %.not.i, label %_ZN5zxing8ArrayRefIcED2Ev.exit, label %32

32:                                               ; preds = %27
  %33 = getelementptr inbounds i8, ptr %31, i64 8
  %34 = load i32, ptr %33, align 8
  %35 = add i32 %34, -1
  store i32 %35, ptr %33, align 8
  %36 = icmp eq i32 %35, 0
  br i1 %36, label %37, label %_ZN5zxing8ArrayRefIcED2Ev.exit

37:                                               ; preds = %32
  store i32 -559026175, ptr %33, align 8
  %38 = load ptr, ptr %31, align 8
  %39 = getelementptr inbounds i8, ptr %38, i64 8
  %40 = load ptr, ptr %39, align 8
  call void %40(ptr noundef nonnull align 8 dereferenceable(12) %31) #10
  br label %_ZN5zxing8ArrayRefIcED2Ev.exit

_ZN5zxing8ArrayRefIcED2Ev.exit:                   ; preds = %27, %32, %37
  store ptr null, ptr %7, align 8
  %41 = load ptr, ptr %2, align 8
  %42 = getelementptr inbounds i8, ptr %41, i64 16
  %43 = load ptr, ptr %42, align 8
  %44 = invoke noundef i32 %43(ptr noundef nonnull align 8 dereferenceable(48) %2)
          to label %45 unwind label %58

45:                                               ; preds = %_ZN5zxing8ArrayRefIcED2Ev.exit
  %.not = icmp eq i32 %44, 0
  %.pre = load i32, ptr %28, align 8
  br i1 %.not, label %_ZN5zxing3RefINS_15LuminanceSourceEEC2ERKS2_.exit, label %68

46:                                               ; preds = %14
  %47 = landingpad { ptr, i32 }
          cleanup
  store ptr getelementptr inbounds inrange(-16, 16) (i8, ptr @_ZTVN5zxing8ArrayRefIcEE, i64 16), ptr %4, align 8
  %48 = load ptr, ptr %7, align 8
  %.not.i15 = icmp eq ptr %48, null
  br i1 %.not.i15, label %_ZN5zxing8ArrayRefIcED2Ev.exit16, label %49

49:                                               ; preds = %46
  %50 = getelementptr inbounds i8, ptr %48, i64 8
  %51 = load i32, ptr %50, align 8
  %52 = add i32 %51, -1
  store i32 %52, ptr %50, align 8
  %53 = icmp eq i32 %52, 0
  br i1 %53, label %54, label %_ZN5zxing8ArrayRefIcED2Ev.exit16

54:                                               ; preds = %49
  store i32 -559026175, ptr %50, align 8
  %55 = load ptr, ptr %48, align 8
  %56 = getelementptr inbounds i8, ptr %55, i64 8
  %57 = load ptr, ptr %56, align 8
  call void %57(ptr noundef nonnull align 8 dereferenceable(12) %48) #10
  br label %_ZN5zxing8ArrayRefIcED2Ev.exit16

_ZN5zxing8ArrayRefIcED2Ev.exit16:                 ; preds = %46, %49, %54
  store ptr null, ptr %7, align 8
  call void @_ZdlPv(ptr noundef nonnull %5) #12
  br label %_ZN5zxing3RefINS_15LuminanceSourceEED2Ev.exit

58:                                               ; preds = %_ZN5zxing8ArrayRefIcED2Ev.exit
  %59 = landingpad { ptr, i32 }
          cleanup
  %60 = load i32, ptr %28, align 8
  %61 = add i32 %60, -1
  store i32 %61, ptr %28, align 8
  %62 = icmp eq i32 %61, 0
  br i1 %62, label %63, label %_ZN5zxing3RefINS_15LuminanceSourceEED2Ev.exit

63:                                               ; preds = %58
  store i32 -559026175, ptr %28, align 8
  %64 = load ptr, ptr %5, align 8
  %65 = getelementptr inbounds i8, ptr %64, i64 8
  %66 = load ptr, ptr %65, align 8
  call void %66(ptr noundef nonnull align 8 dereferenceable(12) %5) #10
  br label %_ZN5zxing3RefINS_15LuminanceSourceEED2Ev.exit

_ZN5zxing3RefINS_15LuminanceSourceEEC2ERKS2_.exit: ; preds = %45
  %67 = add i32 %.pre, 1
  store i32 %67, ptr %28, align 8
  br label %68

68:                                               ; preds = %45, %_ZN5zxing3RefINS_15LuminanceSourceEEC2ERKS2_.exit
  %69 = phi i32 [ %67, %_ZN5zxing3RefINS_15LuminanceSourceEEC2ERKS2_.exit ], [ %.pre, %45 ]
  %storemerge = phi ptr [ %5, %_ZN5zxing3RefINS_15LuminanceSourceEEC2ERKS2_.exit ], [ null, %45 ]
  store ptr %storemerge, ptr %0, align 8
  %70 = add i32 %69, -1
  store i32 %70, ptr %28, align 8
  %71 = icmp eq i32 %70, 0
  br i1 %71, label %72, label %_ZN5zxing3RefINS_15LuminanceSourceEED2Ev.exit22

72:                                               ; preds = %68
  store i32 -559026175, ptr %28, align 8
  %73 = load ptr, ptr %5, align 8
  %74 = getelementptr inbounds i8, ptr %73, i64 8
  %75 = load ptr, ptr %74, align 8
  call void %75(ptr noundef nonnull align 8 dereferenceable(12) %5) #10
  br label %_ZN5zxing3RefINS_15LuminanceSourceEED2Ev.exit22

_ZN5zxing3RefINS_15LuminanceSourceEED2Ev.exit22:  ; preds = %68, %72
  ret void

_ZN5zxing3RefINS_15LuminanceSourceEED2Ev.exit:    ; preds = %63, %58, %_ZN5zxing8ArrayRefIcED2Ev.exit16
  %.pn10 = phi { ptr, i32 } [ %47, %_ZN5zxing8ArrayRefIcED2Ev.exit16 ], [ %59, %58 ], [ %59, %63 ]
  resume { ptr, i32 } %.pn10
}